; Function Attrs: mustprogress nofree nounwind willreturn memory(read, inaccessiblemem: none) uwtable
define noundef zeroext i1 @_ZNK32pxrInternal_v0_24__pxrReserved__16TfDiagnosticBase13IsCodingErrorEv(ptr nocapture noundef nonnull readonly align 8 dereferenceable(145) %0) local_unnamed_addr #5 align 2 {
  %2 = getelementptr inbounds nuw i8, ptr %0, i64 72
  %.sroa.0.0.copyload = load ptr, ptr %2, align 8
  %.sroa.3.0..sroa_idx = getelementptr inbounds i8, ptr %0, i64 80
  %.sroa.3.0.copyload = load i32, ptr %.sroa.3.0..sroa_idx, align 8
  switch i32 %.sroa.3.0.copyload, label %_ZNK32pxrInternal_v0_24__pxrReserved__6TfEnumeqINS_16TfDiagnosticTypeEEENSt9enable_ifIXsr3std7is_enumIT_EE5valueEbE4typeES4_.exit2 [
    i32 1, label %3
    i32 2, label %11
  ]

3:                                                ; preds = %1
  %4 = getelementptr inbounds nuw i8, ptr %.sroa.0.0.copyload, i64 8
  %5 = load ptr, ptr %4, align 8
  %6 = icmp eq ptr %5, @_ZTSN32pxrInternal_v0_24__pxrReserved__16TfDiagnosticTypeE
  br i1 %6, label %_ZNK32pxrInternal_v0_24__pxrReserved__6TfEnumeqINS_16TfDiagnosticTypeEEENSt9enable_ifIXsr3std7is_enumIT_EE5valueEbE4typeES4_.exit2, label %7

7:                                                ; preds = %3
  %8 = load i8, ptr %5, align 1
  %.not.i.i.i.i = icmp eq i8 %8, 42
  br i1 %.not.i.i.i.i, label %_ZNK32pxrInternal_v0_24__pxrReserved__6TfEnumeqINS_16TfDiagnosticTypeEEENSt9enable_ifIXsr3std7is_enumIT_EE5valueEbE4typeES4_.exit.thread, label %_ZNK32pxrInternal_v0_24__pxrReserved__6TfEnumeqINS_16TfDiagnosticTypeEEENSt9enable_ifIXsr3std7is_enumIT_EE5valueEbE4typeES4_.exit

_ZNK32pxrInternal_v0_24__pxrReserved__6TfEnumeqINS_16TfDiagnosticTypeEEENSt9enable_ifIXsr3std7is_enumIT_EE5valueEbE4typeES4_.exit: ; preds = %7
  %9 = tail call i32 @strcmp(ptr noundef nonnull dereferenceable(1) %5, ptr noundef nonnull dereferenceable(55) @_ZTSN32pxrInternal_v0_24__pxrReserved__16TfDiagnosticTypeE) #11
  %10 = icmp eq i32 %9, 0
  br i1 %10, label %_ZNK32pxrInternal_v0_24__pxrReserved__6TfEnumeqINS_16TfDiagnosticTypeEEENSt9enable_ifIXsr3std7is_enumIT_EE5valueEbE4typeES4_.exit2, label %_ZNK32pxrInternal_v0_24__pxrReserved__6TfEnumeqINS_16TfDiagnosticTypeEEENSt9enable_ifIXsr3std7is_enumIT_EE5valueEbE4typeES4_.exit.thread

_ZNK32pxrInternal_v0_24__pxrReserved__6TfEnumeqINS_16TfDiagnosticTypeEEENSt9enable_ifIXsr3std7is_enumIT_EE5valueEbE4typeES4_.exit.thread: ; preds = %7, %_ZNK32pxrInternal_v0_24__pxrReserved__6TfEnumeqINS_16TfDiagnosticTypeEEENSt9enable_ifIXsr3std7is_enumIT_EE5valueEbE4typeES4_.exit
  br label %_ZNK32pxrInternal_v0_24__pxrReserved__6TfEnumeqINS_16TfDiagnosticTypeEEENSt9enable_ifIXsr3std7is_enumIT_EE5valueEbE4typeES4_.exit2

11:                                               ; preds = %1
  %12 = getelementptr inbounds nuw i8, ptr %.sroa.0.0.copyload, i64 8
  %13 = load ptr, ptr %12, align 8
  %14 = icmp eq ptr %13, @_ZTSN32pxrInternal_v0_24__pxrReserved__16TfDiagnosticTypeE
  br i1 %14, label %_ZNK32pxrInternal_v0_24__pxrReserved__6TfEnumeqINS_16TfDiagnosticTypeEEENSt9enable_ifIXsr3std7is_enumIT_EE5valueEbE4typeES4_.exit2, label %15

15:                                               ; preds = %11
  %16 = load i8, ptr %13, align 1
  %.not.i.i.i.i1 = icmp eq i8 %16, 42
  br i1 %.not.i.i.i.i1, label %_ZNK32pxrInternal_v0_24__pxrReserved__6TfEnumeqINS_16TfDiagnosticTypeEEENSt9enable_ifIXsr3std7is_enumIT_EE5valueEbE4typeES4_.exit2, label %17

17:                                               ; preds = %15
  %18 = tail call i32 @strcmp(ptr noundef nonnull dereferenceable(1) %13, ptr noundef nonnull dereferenceable(55) @_ZTSN32pxrInternal_v0_24__pxrReserved__16TfDiagnosticTypeE) #11
  %19 = icmp eq i32 %18, 0
  br label %_ZNK32pxrInternal_v0_24__pxrReserved__6TfEnumeqINS_16TfDiagnosticTypeEEENSt9enable_ifIXsr3std7is_enumIT_EE5valueEbE4typeES4_.exit2

_ZNK32pxrInternal_v0_24__pxrReserved__6TfEnumeqINS_16TfDiagnosticTypeEEENSt9enable_ifIXsr3std7is_enumIT_EE5valueEbE4typeES4_.exit2: ; preds = %_ZNK32pxrInternal_v0_24__pxrReserved__6TfEnumeqINS_16TfDiagnosticTypeEEENSt9enable_ifIXsr3std7is_enumIT_EE5valueEbE4typeES4_.exit.thread, %1, %3, %17, %15, %11, %_ZNK32pxrInternal_v0_24__pxrReserved__6TfEnumeqINS_16TfDiagnosticTypeEEENSt9enable_ifIXsr3std7is_enumIT_EE5valueEbE4typeES4_.exit
  %20 = phi i1 [ true, %_ZNK32pxrInternal_v0_24__pxrReserved__6TfEnumeqINS_16TfDiagnosticTypeEEENSt9enable_ifIXsr3std7is_enumIT_EE5valueEbE4typeES4_.exit ], [ false, %_ZNK32pxrInternal_v0_24__pxrReserved__6TfEnumeqINS_16TfDiagnosticTypeEEENSt9enable_ifIXsr3std7is_enumIT_EE5valueEbE4typeES4_.exit.thread ], [ true, %11 ], [ false, %15 ], [ %19, %17 ], [ true, %3 ], [ false, %1 ]
  ret i1 %20
}